target datalayout = "e-m:e-p270:32:32-p271:32:32-p272:64:64-i64:64-i128:128-f80:128-n8:16:32:64-S128"
target triple = "x86_64-pc-linux-gnu"

%"struct.faiss::IndexIVFStats" = type { i64, i64, i64, i64, double, double }

; Function Attrs: mustprogress nounwind uwtable
define void @_ZN5faiss13IndexIVFStats3addERKS0_(ptr noundef nonnull align 8 dereferenceable(48) %0, ptr noundef nonnull align 8 dereferenceable(48) %1) #1 align 2 {
  %3 = alloca ptr, align 8
  %4 = alloca ptr, align 8
  store ptr %0, ptr %3, align 8, !tbaa !112
  store ptr %1, ptr %4, align 8, !tbaa !112
  %5 = load ptr, ptr %3, align 8
  %6 = load ptr, ptr %4, align 8, !tbaa !112
  %7 = getelementptr inbounds nuw %"struct.faiss::IndexIVFStats", ptr %6, i32 0, i32 0
  %8 = load i64, ptr %7, align 8, !tbaa !127
  %9 = getelementptr inbounds nuw %"struct.faiss::IndexIVFStats", ptr %5, i32 0, i32 0
  %10 = load i64, ptr %9, align 8, !tbaa !127
  %11 = add i64 %10, %8
  store i64 %11, ptr %9, align 8, !tbaa !127
  %12 = load ptr, ptr %4, align 8, !tbaa !112
  %13 = getelementptr inbounds nuw %"struct.faiss::IndexIVFStats", ptr %12, i32 0, i32 1
  %14 = load i64, ptr %13, align 8, !tbaa !128
  %15 = getelementptr inbounds nuw %"struct.faiss::IndexIVFStats", ptr %5, i32 0, i32 1
  %16 = load i64, ptr %15, align 8, !tbaa !128
  %17 = add i64 %16, %14
  store i64 %17, ptr %15, align 8, !tbaa !128
  %18 = load ptr, ptr %4, align 8, !tbaa !112
  %19 = getelementptr inbounds nuw %"struct.faiss::IndexIVFStats", ptr %18, i32 0, i32 2
  %20 = load i64, ptr %19, align 8, !tbaa !129
  %21 = getelementptr inbounds nuw %"struct.faiss::IndexIVFStats", ptr %5, i32 0, i32 2
  %22 = load i64, ptr %21, align 8, !tbaa !129
  %23 = add i64 %22, %20
  store i64 %23, ptr %21, align 8, !tbaa !129
  %24 = load ptr, ptr %4, align 8, !tbaa !112
  %25 = getelementptr inbounds nuw %"struct.faiss::IndexIVFStats", ptr %24, i32 0, i32 3
  %26 = load i64, ptr %25, align 8, !tbaa !130
  %27 = getelementptr inbounds nuw %"struct.faiss::IndexIVFStats", ptr %5, i32 0, i32 3
  %28 = load i64, ptr %27, align 8, !tbaa !130
  %29 = add i64 %28, %26
  store i64 %29, ptr %27, align 8, !tbaa !130
  %30 = load ptr, ptr %4, align 8, !tbaa !112
  %31 = getelementptr inbounds nuw %"struct.faiss::IndexIVFStats", ptr %30, i32 0, i32 4
  %32 = load double, ptr %31, align 8, !tbaa !96
  %33 = getelementptr inbounds nuw %"struct.faiss::IndexIVFStats", ptr %5, i32 0, i32 4
  %34 = load double, ptr %33, align 8, !tbaa !96
  %35 = fadd double %34, %32
  store double %35, ptr %33, align 8, !tbaa !96
  %36 = load ptr, ptr %4, align 8, !tbaa !112
  %37 = getelementptr inbounds nuw %"struct.faiss::IndexIVFStats", ptr %36, i32 0, i32 5
  %38 = load double, ptr %37, align 8, !tbaa !99
  %39 = getelementptr inbounds nuw %"struct.faiss::IndexIVFStats", ptr %5, i32 0, i32 5
  %40 = load double, ptr %39, align 8, !tbaa !99
  %41 = fadd double %40, %38
  store double %41, ptr %39, align 8, !tbaa !99
  ret void
}