; Function Attrs: mustprogress nofree norecurse nosync nounwind willreturn memory(argmem: readwrite) uwtable
define void @_ZN5faiss13IndexIVFStats3addERKS0_(ptr noundef nonnull align 8 captures(none) dereferenceable(48) %0, ptr noundef nonnull readonly align 8 captures(none) dereferenceable(48) %1) local_unnamed_addr #32 align 2 {
  %3 = load i64, ptr %1, align 8, !tbaa !84
  %4 = load i64, ptr %0, align 8, !tbaa !84
  %5 = add i64 %4, %3
  store i64 %5, ptr %0, align 8, !tbaa !84
  %6 = getelementptr inbounds nuw i8, ptr %1, i64 8
  %7 = load i64, ptr %6, align 8, !tbaa !87
  %8 = getelementptr inbounds nuw i8, ptr %0, i64 8
  %9 = load i64, ptr %8, align 8, !tbaa !87
  %10 = add i64 %9, %7
  store i64 %10, ptr %8, align 8, !tbaa !87
  %11 = getelementptr inbounds nuw i8, ptr %1, i64 16
  %12 = load i64, ptr %11, align 8, !tbaa !88
  %13 = getelementptr inbounds nuw i8, ptr %0, i64 16
  %14 = load i64, ptr %13, align 8, !tbaa !88
  %15 = add i64 %14, %12
  store i64 %15, ptr %13, align 8, !tbaa !88
  %16 = getelementptr inbounds nuw i8, ptr %1, i64 24
  %17 = load i64, ptr %16, align 8, !tbaa !89
  %18 = getelementptr inbounds nuw i8, ptr %0, i64 24
  %19 = load i64, ptr %18, align 8, !tbaa !89
  %20 = add i64 %19, %17
  store i64 %20, ptr %18, align 8, !tbaa !89
  %21 = getelementptr inbounds nuw i8, ptr %1, i64 32
  %22 = load double, ptr %21, align 8, !tbaa !90
  %23 = getelementptr inbounds nuw i8, ptr %0, i64 32
  %24 = load double, ptr %23, align 8, !tbaa !90
  %25 = fadd double %22, %24
  store double %25, ptr %23, align 8, !tbaa !90
  %26 = getelementptr inbounds nuw i8, ptr %1, i64 40
  %27 = load double, ptr %26, align 8, !tbaa !91
  %28 = getelementptr inbounds nuw i8, ptr %0, i64 40
  %29 = load double, ptr %28, align 8, !tbaa !91
  %30 = fadd double %27, %29
  store double %30, ptr %28, align 8, !tbaa !91
  ret void
}